target datalayout = "e-m:e-p270:32:32-p271:32:32-p272:64:64-i64:64-i128:128-f80:128-n8:16:32:64-S128"
target triple = "x86_64-pc-linux-gnu"

%struct.ssl_st = type { i32, i16, i16, ptr, ptr, ptr, ptr, ptr, i32, i32, ptr, ptr, i32, i32, ptr, ptr, ptr, ptr, ptr, ptr, ptr, ptr, i32, i32, [32 x i8], ptr, ptr, ptr, ptr, ptr, ptr, ptr, i64, %struct.crypto_ex_data_st, ptr, i32, i32, i32, i32, i16, ptr, i32, i64, ptr, ptr, ptr, ptr, ptr, ptr, i32, i32, ptr, ptr, i8, i8, i32 }
%struct.crypto_ex_data_st = type { ptr }
%struct.ssl3_state_st = type { [8 x i8], [8 x i8], [32 x i8], [32 x i8], i8, i8, %struct.ssl3_buffer_st, %struct.ssl3_buffer_st, %struct.ssl3_record_st, i8, i32, i32, i32, i32, ptr, ptr, %struct.env_md_ctx_st, %struct.env_md_ctx_st, i8, i32, [2 x i8], i32, i8, i8, ptr, ptr, ptr, %struct.anon, [64 x i8], i8, [64 x i8], i8, i32, i32, ptr, i64, ptr, i64, i8, [64 x i8] }
%struct.ssl3_buffer_st = type { ptr, i16, i16, i16 }
%struct.ssl3_record_st = type { i8, i16, ptr }
%struct.env_md_ctx_st = type { ptr, ptr, ptr, ptr }
%struct.anon = type { [64 x i8], i32, [64 x i8], i32, i64, i32, ptr, i32, i32, %union.anon, %union.anon.0, i8, i32, ptr, ptr, i64, ptr, i8, i8, i8, i8, i32, i8, ptr, i64, i8, ptr, i8, i8, i8, %struct.ssl_ecdh_ctx_st, ptr, i16 }
%union.anon = type { i32 }
%union.anon.0 = type { i16 }
%struct.ssl_ecdh_ctx_st = type { ptr, ptr }

@.str = private unnamed_addr constant [116 x i8] c"generated/home/dtcxzyw/WorkSpace/Projects/compilers/llvm-opt-benchmark/bench/libquic/libquic/boringssl/ssl/d1_pkt.c\00", align 1

; Function Attrs: nounwind uwtable
define hidden i32 @dtls1_read_change_cipher_spec(ptr noundef %0) #0 {
  %2 = alloca i32, align 4
  %3 = alloca ptr, align 8
  %4 = alloca i8, align 1
  %5 = alloca i32, align 4
  %6 = alloca i32, align 4
  store ptr %0, ptr %3, align 8, !tbaa !6
  call void @llvm.lifetime.start.p0(i64 1, ptr %4) #4
  call void @llvm.lifetime.start.p0(i64 4, ptr %5) #4
  %7 = load ptr, ptr %3, align 8, !tbaa !6
  %8 = call i32 @dtls1_read_bytes(ptr noundef %7, i32 noundef 20, ptr noundef %4, i32 noundef 1, i32 noundef 0)
  store i32 %8, ptr %5, align 4, !tbaa !13
  %9 = load i32, ptr %5, align 4, !tbaa !13
  %10 = icmp sle i32 %9, 0
  br i1 %10, label %11, label %13

11:                                               ; preds = %1
  %12 = load i32, ptr %5, align 4, !tbaa !13
  store i32 %12, ptr %2, align 4
  store i32 1, ptr %6, align 4
  br label %46

13:                                               ; preds = %1
  %14 = load ptr, ptr %3, align 8, !tbaa !6
  %15 = getelementptr inbounds nuw %struct.ssl_st, ptr %14, i32 0, i32 14
  %16 = load ptr, ptr %15, align 8, !tbaa !16
  %17 = getelementptr inbounds nuw %struct.ssl3_state_st, ptr %16, i32 0, i32 8
  %18 = getelementptr inbounds nuw %struct.ssl3_record_st, ptr %17, i32 0, i32 1
  %19 = load i16, ptr %18, align 2, !tbaa !78
  %20 = zext i16 %19 to i32
  %21 = icmp ne i32 %20, 0
  br i1 %21, label %26, label %22

22:                                               ; preds = %13
  %23 = load i8, ptr %4, align 1, !tbaa !63
  %24 = zext i8 %23 to i32
  %25 = icmp ne i32 %24, 1
  br i1 %25, label %26, label %29

26:                                               ; preds = %22, %13
  call void @ERR_put_error(i32 noundef 16, i32 noundef 0, i32 noundef 103, ptr noundef @.str, i32 noundef 202)
  %27 = load ptr, ptr %3, align 8, !tbaa !6
  %28 = call i32 @ssl3_send_alert(ptr noundef %27, i32 noundef 2, i32 noundef 47)
  store i32 -1, ptr %2, align 4
  store i32 1, ptr %6, align 4
  br label %46

29:                                               ; preds = %22
  %30 = load ptr, ptr %3, align 8, !tbaa !6
  %31 = getelementptr inbounds nuw %struct.ssl_st, ptr %30, i32 0, i32 16
  %32 = load ptr, ptr %31, align 8, !tbaa !60
  %33 = icmp ne ptr %32, null
  br i1 %33, label %34, label %45

34:                                               ; preds = %29
  %35 = load ptr, ptr %3, align 8, !tbaa !6
  %36 = getelementptr inbounds nuw %struct.ssl_st, ptr %35, i32 0, i32 16
  %37 = load ptr, ptr %36, align 8, !tbaa !60
  %38 = load ptr, ptr %3, align 8, !tbaa !6
  %39 = getelementptr inbounds nuw %struct.ssl_st, ptr %38, i32 0, i32 0
  %40 = load i32, ptr %39, align 8, !tbaa !61
  %41 = load ptr, ptr %3, align 8, !tbaa !6
  %42 = load ptr, ptr %3, align 8, !tbaa !6
  %43 = getelementptr inbounds nuw %struct.ssl_st, ptr %42, i32 0, i32 17
  %44 = load ptr, ptr %43, align 8, !tbaa !62
  call void %37(i32 noundef 0, i32 noundef %40, i32 noundef 20, ptr noundef %4, i64 noundef 1, ptr noundef %41, ptr noundef %44)
  br label %45

45:                                               ; preds = %34, %29
  store i32 1, ptr %2, align 4
  store i32 1, ptr %6, align 4
  br label %46

46:                                               ; preds = %45, %26, %11
  call void @llvm.lifetime.end.p0(i64 4, ptr %5) #4
  call void @llvm.lifetime.end.p0(i64 1, ptr %4) #4
  %47 = load i32, ptr %2, align 4
  ret i32 %47
}