; Function Attrs: nounwind uwtable
define hidden range(i32 -2147483648, 2) i32 @dtls1_read_change_cipher_spec(ptr noundef %0) local_unnamed_addr #0 {
  %2 = alloca i8, align 1
  call void @llvm.lifetime.start.p0(i64 1, ptr nonnull %2) #6
  %3 = call i32 @dtls1_read_bytes(ptr noundef %0, i32 noundef 20, ptr noundef nonnull %2, i32 noundef 1, i32 noundef 0)
  %4 = icmp slt i32 %3, 1
  br i1 %4, label %22, label %5

5:                                                ; preds = %1
  %6 = getelementptr inbounds nuw i8, ptr %0, i64 80
  %7 = load ptr, ptr %6, align 8, !tbaa !6
  %8 = getelementptr inbounds nuw i8, ptr %7, i64 122
  %9 = load i16, ptr %8, align 2, !tbaa !71
  %10 = icmp ne i16 %9, 0
  %11 = load i8, ptr %2, align 1
  %12 = icmp ne i8 %11, 1
  %or.cond = select i1 %10, i1 true, i1 %12
  br i1 %or.cond, label %13, label %15

13:                                               ; preds = %5
  tail call void @ERR_put_error(i32 noundef 16, i32 noundef 0, i32 noundef 103, ptr noundef nonnull @.str, i32 noundef 202) #6
  %14 = tail call i32 @ssl3_send_alert(ptr noundef nonnull %0, i32 noundef 2, i32 noundef 47) #6
  br label %22

15:                                               ; preds = %5
  %16 = getelementptr inbounds nuw i8, ptr %0, i64 96
  %17 = load ptr, ptr %16, align 8, !tbaa !55
  %.not = icmp eq ptr %17, null
  br i1 %.not, label %22, label %18

18:                                               ; preds = %15
  %19 = load i32, ptr %0, align 8, !tbaa !56
  %20 = getelementptr inbounds nuw i8, ptr %0, i64 104
  %21 = load ptr, ptr %20, align 8, !tbaa !57
  call void %17(i32 noundef 0, i32 noundef %19, i32 noundef 20, ptr noundef nonnull %2, i64 noundef 1, ptr noundef nonnull %0, ptr noundef %21) #6
  br label %22

22:                                               ; preds = %15, %18, %1, %13
  %.0 = phi i32 [ -1, %13 ], [ %3, %1 ], [ 1, %18 ], [ 1, %15 ]
  call void @llvm.lifetime.end.p0(i64 1, ptr nonnull %2) #6
  ret i32 %.0
}